; Function Attrs: mustprogress uwtable
define hidden noundef zeroext i1 @_ZNK11ast_manager15is_fully_interpEP4sort(ptr noundef nonnull readonly align 8 captures(none) dereferenceable(976) %0, ptr noundef %1) local_unnamed_addr #7 align 2 {
  %3 = getelementptr inbounds nuw i8, ptr %1, i64 24
  %4 = load ptr, ptr %3, align 8, !tbaa !111
  %5 = icmp eq ptr %4, null
  br i1 %5, label %_ZNK11ast_manager11is_uninterpEPK4sort.exit.thread, label %_ZNK11ast_manager11is_uninterpEPK4sort.exit

_ZNK11ast_manager11is_uninterpEPK4sort.exit:      ; preds = %2
  %6 = load i32, ptr %4, align 8, !tbaa !96
  switch i32 %6, label %_ZNK4decl13get_family_idEv.exit [
    i32 -1, label %_ZNK11ast_manager11is_uninterpEPK4sort.exit.thread
    i32 4, label %_ZNK11ast_manager11is_uninterpEPK4sort.exit.thread
  ]

_ZNK4decl13get_family_idEv.exit:                  ; preds = %_ZNK11ast_manager11is_uninterpEPK4sort.exit
  %7 = getelementptr inbounds nuw i8, ptr %0, i64 704
  %8 = load ptr, ptr %7, align 8, !tbaa !33
  %9 = icmp eq ptr %8, null
  br i1 %9, label %_ZNK11ast_manager11is_uninterpEPK4sort.exit.thread, label %_ZNK6vectorIP11decl_pluginLb0EjE3getEjRKS1_.exit.i

_ZNK6vectorIP11decl_pluginLb0EjE3getEjRKS1_.exit.i: ; preds = %_ZNK4decl13get_family_idEv.exit
  %10 = getelementptr inbounds i8, ptr %8, i64 -4
  %11 = load i32, ptr %10, align 4, !tbaa !24
  %.not.i.i = icmp ult i32 %6, %11
  br i1 %.not.i.i, label %_ZNK11ast_manager10get_pluginEi.exit, label %_ZNK11ast_manager11is_uninterpEPK4sort.exit.thread

_ZNK11ast_manager10get_pluginEi.exit:             ; preds = %_ZNK6vectorIP11decl_pluginLb0EjE3getEjRKS1_.exit.i
  %12 = zext i32 %6 to i64
  %13 = getelementptr inbounds nuw ptr, ptr %8, i64 %12
  %.then.val.i = load ptr, ptr %13, align 8, !tbaa !37
  %.not = icmp eq ptr %.then.val.i, null
  br i1 %.not, label %_ZNK11ast_manager11is_uninterpEPK4sort.exit.thread, label %14

14:                                               ; preds = %_ZNK11ast_manager10get_pluginEi.exit
  %15 = load ptr, ptr %.then.val.i, align 8, !tbaa !39
  %16 = getelementptr inbounds nuw i8, ptr %15, i64 136
  %17 = load ptr, ptr %16, align 8
  %18 = tail call noundef zeroext i1 %17(ptr noundef nonnull align 8 dereferenceable(20) %.then.val.i, ptr noundef nonnull %1)
  br label %_ZNK11ast_manager11is_uninterpEPK4sort.exit.thread

_ZNK11ast_manager11is_uninterpEPK4sort.exit.thread: ; preds = %_ZNK11ast_manager11is_uninterpEPK4sort.exit, %_ZNK11ast_manager11is_uninterpEPK4sort.exit, %_ZNK4decl13get_family_idEv.exit, %_ZNK6vectorIP11decl_pluginLb0EjE3getEjRKS1_.exit.i, %2, %14, %_ZNK11ast_manager10get_pluginEi.exit
  %.0 = phi i1 [ false, %_ZNK11ast_manager11is_uninterpEPK4sort.exit ], [ %18, %14 ], [ false, %_ZNK11ast_manager10get_pluginEi.exit ], [ false, %2 ], [ false, %_ZNK6vectorIP11decl_pluginLb0EjE3getEjRKS1_.exit.i ], [ false, %_ZNK4decl13get_family_idEv.exit ], [ false, %_ZNK11ast_manager11is_uninterpEPK4sort.exit ]
  ret i1 %.0
}